target datalayout = "e-m:e-p270:32:32-p271:32:32-p272:64:64-i64:64-i128:128-f80:128-n8:16:32:64-S128"
target triple = "x86_64-pc-linux-gnu"

%struct.iv_itr_data = type { i64, ptr, i64, ptr }

; Function Attrs: nounwind sspstrong uwtable
define internal i32 @each_hash_iv(i64 noundef %0, i64 noundef %1, i64 noundef %2) #0 {
  %4 = alloca i64, align 8
  %5 = alloca i64, align 8
  %6 = alloca i64, align 8
  %7 = alloca ptr, align 8
  %8 = alloca ptr, align 8
  store i64 %0, ptr %4, align 8, !tbaa !14
  store i64 %1, ptr %5, align 8, !tbaa !14
  store i64 %2, ptr %6, align 8, !tbaa !14
  call void @llvm.lifetime.start.p0(i64 8, ptr %7) #30
  %9 = load i64, ptr %6, align 8, !tbaa !14
  %10 = inttoptr i64 %9 to ptr
  store ptr %10, ptr %7, align 8, !tbaa !229
  call void @llvm.lifetime.start.p0(i64 8, ptr %8) #30
  %11 = load ptr, ptr %7, align 8, !tbaa !229
  %12 = getelementptr inbounds nuw %struct.iv_itr_data, ptr %11, i32 0, i32 3
  %13 = load ptr, ptr %12, align 8, !tbaa !120
  store ptr %13, ptr %8, align 8, !tbaa !40
  %14 = load ptr, ptr %8, align 8, !tbaa !40
  %15 = load i64, ptr %4, align 8, !tbaa !14
  %16 = load i64, ptr %5, align 8, !tbaa !14
  %17 = load ptr, ptr %7, align 8, !tbaa !229
  %18 = getelementptr inbounds nuw %struct.iv_itr_data, ptr %17, i32 0, i32 2
  %19 = load i64, ptr %18, align 8, !tbaa !119
  %20 = call i32 %14(i64 noundef %15, i64 noundef %16, i64 noundef %19)
  call void @llvm.lifetime.end.p0(i64 8, ptr %8) #30
  call void @llvm.lifetime.end.p0(i64 8, ptr %7) #30
  ret i32 %20
}