; Function Attrs: nounwind sspstrong uwtable
define internal i32 @each_hash_iv(i64 noundef %0, i64 noundef %1, i64 noundef %2) #0 {
  %4 = inttoptr i64 %2 to ptr
  %5 = getelementptr inbounds nuw i8, ptr %4, i64 24
  %6 = load ptr, ptr %5, align 8, !tbaa !108
  %7 = getelementptr inbounds nuw i8, ptr %4, i64 16
  %8 = load i64, ptr %7, align 8, !tbaa !107
  %9 = tail call i32 %6(i64 noundef %0, i64 noundef %1, i64 noundef %8) #27
  ret i32 %9
}